target datalayout = "e-m:e-p270:32:32-p271:32:32-p272:64:64-i64:64-i128:128-f80:128-n8:16:32:64-S128"
target triple = "x86_64-pc-linux-gnu"

@yy_start = internal global i32 0, align 4
@yy_c_buf_p = internal global ptr null, align 8
@yy_last_accepting_state = internal global i32 0, align 4
@yy_last_accepting_cpos = internal global ptr null, align 8
@yy_meta = internal constant [41 x i8] c"\00\01\01\02\03\03\03\03\03\03\03\03\01\01\01\01\01\01\01\01\01\01\01\01\01\01\01\01\01\01\01\01\01\01\01\01\01\01\01\01\01", align 16
@H5LTyytext = global ptr null, align 8

; Function Attrs: nounwind uwtable
define internal i32 @yy_get_previous_state() #0 {
  %1 = alloca i32, align 4
  %2 = alloca ptr, align 8
  %3 = alloca i8, align 1
  %4 = load i32, ptr @yy_start, align 4
  store i32 %4, ptr %1, align 4
  %5 = load ptr, ptr @H5LTyytext, align 8
  %6 = getelementptr inbounds i8, ptr %5, i64 0
  store ptr %6, ptr %2, align 8
  br label %7

7:                                                ; preds = %78, %0
  %8 = load ptr, ptr %2, align 8
  %9 = load ptr, ptr @yy_c_buf_p, align 8
  %10 = icmp ult ptr %8, %9
  br i1 %10, label %11, label %81

11:                                               ; preds = %7
  %12 = load ptr, ptr %2, align 8
  %13 = load i8, ptr %12, align 1
  %14 = sext i8 %13 to i32
  %15 = icmp ne i32 %14, 0
  br i1 %15, label %16, label %23

16:                                               ; preds = %11
  %17 = load ptr, ptr %2, align 8
  %18 = load i8, ptr %17, align 1
  %19 = zext i8 %18 to i64
  %20 = getelementptr inbounds [256 x i8], ptr @yy_ec, i64 0, i64 %19
  %21 = load i8, ptr %20, align 1
  %22 = zext i8 %21 to i32
  br label %24

23:                                               ; preds = %11
  br label %24

24:                                               ; preds = %23, %16
  %25 = phi i32 [ %22, %16 ], [ 1, %23 ]
  %26 = trunc i32 %25 to i8
  store i8 %26, ptr %3, align 1
  %27 = load i32, ptr %1, align 4
  %28 = sext i32 %27 to i64
  %29 = getelementptr inbounds [283 x i16], ptr @yy_accept, i64 0, i64 %28
  %30 = load i16, ptr %29, align 2
  %31 = icmp ne i16 %30, 0
  br i1 %31, label %32, label %35

32:                                               ; preds = %24
  %33 = load i32, ptr %1, align 4
  store i32 %33, ptr @yy_last_accepting_state, align 4
  %34 = load ptr, ptr %2, align 8
  store ptr %34, ptr @yy_last_accepting_cpos, align 8
  br label %35

35:                                               ; preds = %32, %24
  br label %36

36:                                               ; preds = %64, %35
  %37 = load i32, ptr %1, align 4
  %38 = sext i32 %37 to i64
  %39 = getelementptr inbounds [285 x i16], ptr @yy_base, i64 0, i64 %38
  %40 = load i16, ptr %39, align 2
  %41 = sext i16 %40 to i32
  %42 = load i8, ptr %3, align 1
  %43 = zext i8 %42 to i32
  %44 = add nsw i32 %41, %43
  %45 = sext i32 %44 to i64
  %46 = getelementptr inbounds [349 x i16], ptr @yy_chk, i64 0, i64 %45
  %47 = load i16, ptr %46, align 2
  %48 = sext i16 %47 to i32
  %49 = load i32, ptr %1, align 4
  %50 = icmp ne i32 %48, %49
  br i1 %50, label %51, label %65

51:                                               ; preds = %36
  %52 = load i32, ptr %1, align 4
  %53 = sext i32 %52 to i64
  %54 = getelementptr inbounds [285 x i16], ptr @yy_def, i64 0, i64 %53
  %55 = load i16, ptr %54, align 2
  %56 = sext i16 %55 to i32
  store i32 %56, ptr %1, align 4
  %57 = load i32, ptr %1, align 4
  %58 = icmp sge i32 %57, 283
  br i1 %58, label %59, label %64

59:                                               ; preds = %51
  %60 = load i8, ptr %3, align 1
  %61 = zext i8 %60 to i64
  %62 = getelementptr inbounds [41 x i8], ptr @yy_meta, i64 0, i64 %61
  %63 = load i8, ptr %62, align 1
  store i8 %63, ptr %3, align 1
  br label %64

64:                                               ; preds = %59, %51
  br label %36

65:                                               ; preds = %36
  %66 = load i32, ptr %1, align 4
  %67 = sext i32 %66 to i64
  %68 = getelementptr inbounds [285 x i16], ptr @yy_base, i64 0, i64 %67
  %69 = load i16, ptr %68, align 2
  %70 = sext i16 %69 to i32
  %71 = load i8, ptr %3, align 1
  %72 = zext i8 %71 to i32
  %73 = add nsw i32 %70, %72
  %74 = sext i32 %73 to i64
  %75 = getelementptr inbounds [349 x i16], ptr @yy_nxt, i64 0, i64 %74
  %76 = load i16, ptr %75, align 2
  %77 = sext i16 %76 to i32
  store i32 %77, ptr %1, align 4
  br label %78

78:                                               ; preds = %65
  %79 = load ptr, ptr %2, align 8
  %80 = getelementptr inbounds i8, ptr %79, i32 1
  store ptr %80, ptr %2, align 8
  br label %7

81:                                               ; preds = %7
  %82 = load i32, ptr %1, align 4
  ret i32 %82
}