; Function Attrs: nofree norecurse nosync nounwind memory(readwrite, argmem: read, inaccessiblemem: none) uwtable
define internal fastcc range(i32 -32768, 32768) i32 @yy_get_previous_state() unnamed_addr #3 {
  %.b = load i1, ptr @yy_start, align 4
  %1 = zext i1 %.b to i32
  %2 = load ptr, ptr @H5LTyytext, align 8
  %3 = load ptr, ptr @yy_c_buf_p, align 8
  %4 = icmp ult ptr %2, %3
  br i1 %4, label %.lr.ph25, label %._crit_edge26

.lr.ph25:                                         ; preds = %0, %._crit_edge
  %.01523 = phi ptr [ %45, %._crit_edge ], [ %2, %0 ]
  %.01622 = phi i32 [ %44, %._crit_edge ], [ %1, %0 ]
  %5 = load i8, ptr %.01523, align 1
  %.not = icmp eq i8 %5, 0
  br i1 %.not, label %10, label %6

6:                                                ; preds = %.lr.ph25
  %7 = zext i8 %5 to i64
  %8 = getelementptr inbounds [256 x i8], ptr @yy_ec, i64 0, i64 %7
  %9 = load i8, ptr %8, align 1
  br label %10

10:                                               ; preds = %.lr.ph25, %6
  %11 = phi i8 [ %9, %6 ], [ 1, %.lr.ph25 ]
  %12 = sext i32 %.01622 to i64
  %13 = getelementptr inbounds [283 x i16], ptr @yy_accept, i64 0, i64 %12
  %14 = load i16, ptr %13, align 2
  %.not18 = icmp eq i16 %14, 0
  br i1 %.not18, label %16, label %15

15:                                               ; preds = %10
  store i32 %.01622, ptr @yy_last_accepting_state, align 4
  store ptr %.01523, ptr @yy_last_accepting_cpos, align 8
  br label %16

16:                                               ; preds = %15, %10
  %17 = getelementptr inbounds [285 x i16], ptr @yy_base, i64 0, i64 %12
  %18 = load i16, ptr %17, align 2
  %19 = sext i16 %18 to i64
  %20 = zext i8 %11 to i64
  %21 = add nsw i64 %19, %20
  %22 = getelementptr inbounds [349 x i16], ptr @yy_chk, i64 0, i64 %21
  %23 = load i16, ptr %22, align 2
  %24 = sext i16 %23 to i32
  %.not1920 = icmp eq i32 %.01622, %24
  br i1 %.not1920, label %._crit_edge, label %.lr.ph

.lr.ph:                                           ; preds = %16, %33
  %25 = phi i64 [ %38, %33 ], [ %20, %16 ]
  %26 = phi i64 [ %34, %33 ], [ %12, %16 ]
  %.021 = phi i8 [ %.1, %33 ], [ %11, %16 ]
  %27 = getelementptr inbounds [285 x i16], ptr @yy_def, i64 0, i64 %26
  %28 = load i16, ptr %27, align 2
  %29 = icmp sgt i16 %28, 282
  br i1 %29, label %30, label %33

30:                                               ; preds = %.lr.ph
  %31 = getelementptr inbounds [41 x i8], ptr @yy_meta, i64 0, i64 %25
  %32 = load i8, ptr %31, align 1
  br label %33

33:                                               ; preds = %30, %.lr.ph
  %.1 = phi i8 [ %32, %30 ], [ %.021, %.lr.ph ]
  %34 = sext i16 %28 to i64
  %35 = getelementptr inbounds [285 x i16], ptr @yy_base, i64 0, i64 %34
  %36 = load i16, ptr %35, align 2
  %37 = sext i16 %36 to i64
  %38 = zext i8 %.1 to i64
  %39 = add nsw i64 %37, %38
  %40 = getelementptr inbounds [349 x i16], ptr @yy_chk, i64 0, i64 %39
  %41 = load i16, ptr %40, align 2
  %.not19 = icmp eq i16 %28, %41
  br i1 %.not19, label %._crit_edge, label %.lr.ph

._crit_edge:                                      ; preds = %33, %16
  %.lcssa = phi i64 [ %21, %16 ], [ %39, %33 ]
  %42 = getelementptr inbounds [349 x i16], ptr @yy_nxt, i64 0, i64 %.lcssa
  %43 = load i16, ptr %42, align 2
  %44 = sext i16 %43 to i32
  %45 = getelementptr inbounds i8, ptr %.01523, i64 1
  %exitcond.not = icmp eq ptr %45, %3
  br i1 %exitcond.not, label %._crit_edge26, label %.lr.ph25

._crit_edge26:                                    ; preds = %._crit_edge, %0
  %.016.lcssa = phi i32 [ %1, %0 ], [ %44, %._crit_edge ]
  ret i32 %.016.lcssa
}